target datalayout = "e-m:e-p270:32:32-p271:32:32-p272:64:64-i64:64-i128:128-f80:128-n8:16:32:64-S128"
target triple = "x86_64-unknown-linux-gnu"

%"struct.node::AssertionInfo" = type { ptr, ptr, ptr }
%struct.napi_env__ = type <{ ptr, ptr, %"class.v8::Global", %"class.v8::Global.0", %"class.v8impl::RefTracker", %"class.v8impl::RefTracker", %"class.std::unordered_set", %struct.napi_extended_error_info, i32, i32, i32, [4 x i8], ptr, i32, i8, [3 x i8] }>
%"class.v8::Global" = type { %"class.v8::PersistentBase" }
%"class.v8::PersistentBase" = type { %"class.v8::IndirectHandleBase" }
%"class.v8::IndirectHandleBase" = type { ptr }
%"class.v8::Global.0" = type { %"class.v8::PersistentBase.1" }
%"class.v8::PersistentBase.1" = type { %"class.v8::IndirectHandleBase" }
%"class.v8impl::RefTracker" = type { ptr, ptr, ptr }
%"class.std::unordered_set" = type { %"class.std::_Hashtable" }
%"class.std::_Hashtable" = type { ptr, i64, %"struct.std::__detail::_Hash_node_base", i64, %"struct.std::__detail::_Prime_rehash_policy", ptr }
%"struct.std::__detail::_Hash_node_base" = type { ptr }
%"struct.std::__detail::_Prime_rehash_policy" = type { float, i64 }
%struct.napi_extended_error_info = type { ptr, ptr, i32, i32 }

@_ZZ24napi_get_last_error_infoE4args = internal constant %"struct.node::AssertionInfo" { ptr @.str, ptr @.str.1, ptr @.str.2 }, align 8

; Function Attrs: mustprogress nounwind uwtable
define linkonce_odr dso_local noundef i32 @_Z21napi_clear_last_errorP10napi_env__(ptr noundef %env) #4 comdat {
entry:
  %env.addr = alloca ptr, align 8
  store ptr %env, ptr %env.addr, align 8
  %0 = load ptr, ptr %env.addr, align 8
  %last_error = getelementptr inbounds %struct.napi_env__, ptr %0, i32 0, i32 7
  %error_code = getelementptr inbounds %struct.napi_extended_error_info, ptr %last_error, i32 0, i32 3
  store i32 0, ptr %error_code, align 4
  %1 = load ptr, ptr %env.addr, align 8
  %last_error1 = getelementptr inbounds %struct.napi_env__, ptr %1, i32 0, i32 7
  %engine_error_code = getelementptr inbounds %struct.napi_extended_error_info, ptr %last_error1, i32 0, i32 2
  store i32 0, ptr %engine_error_code, align 8
  %2 = load ptr, ptr %env.addr, align 8
  %last_error2 = getelementptr inbounds %struct.napi_env__, ptr %2, i32 0, i32 7
  %engine_reserved = getelementptr inbounds %struct.napi_extended_error_info, ptr %last_error2, i32 0, i32 1
  store ptr null, ptr %engine_reserved, align 8
  %3 = load ptr, ptr %env.addr, align 8
  %last_error3 = getelementptr inbounds %struct.napi_env__, ptr %3, i32 0, i32 7
  %error_message = getelementptr inbounds %struct.napi_extended_error_info, ptr %last_error3, i32 0, i32 0
  store ptr null, ptr %error_message, align 8
  ret i32 0
}

; Function Attrs: mustprogress nounwind uwtable
define linkonce_odr dso_local noundef i32 @_Z19napi_set_last_errorP10napi_env__11napi_statusjPv(ptr noundef %env, i32 noundef %error_code, i32 noundef %engine_error_code, ptr noundef %engine_reserved) #4 comdat {
entry:
  %env.addr = alloca ptr, align 8
  %error_code.addr = alloca i32, align 4
  %engine_error_code.addr = alloca i32, align 4
  %engine_reserved.addr = alloca ptr, align 8
  store ptr %env, ptr %env.addr, align 8
  store i32 %error_code, ptr %error_code.addr, align 4
  store i32 %engine_error_code, ptr %engine_error_code.addr, align 4
  store ptr %engine_reserved, ptr %engine_reserved.addr, align 8
  %0 = load i32, ptr %error_code.addr, align 4
  %1 = load ptr, ptr %env.addr, align 8
  %last_error = getelementptr inbounds %struct.napi_env__, ptr %1, i32 0, i32 7
  %error_code1 = getelementptr inbounds %struct.napi_extended_error_info, ptr %last_error, i32 0, i32 3
  store i32 %0, ptr %error_code1, align 4
  %2 = load i32, ptr %engine_error_code.addr, align 4
  %3 = load ptr, ptr %env.addr, align 8
  %last_error2 = getelementptr inbounds %struct.napi_env__, ptr %3, i32 0, i32 7
  %engine_error_code3 = getelementptr inbounds %struct.napi_extended_error_info, ptr %last_error2, i32 0, i32 2
  store i32 %2, ptr %engine_error_code3, align 8
  %4 = load ptr, ptr %engine_reserved.addr, align 8
  %5 = load ptr, ptr %env.addr, align 8
  %last_error4 = getelementptr inbounds %struct.napi_env__, ptr %5, i32 0, i32 7
  %engine_reserved5 = getelementptr inbounds %struct.napi_extended_error_info, ptr %last_error4, i32 0, i32 1
  store ptr %4, ptr %engine_reserved5, align 8
  %6 = load i32, ptr %error_code.addr, align 4
  ret i32 %6
}

; Function Attrs: mustprogress nounwind uwtable
define dso_local i32 @napi_get_last_error_info(ptr noundef %env, ptr noundef %result) #4 {
entry:
  %retval = alloca i32, align 4
  %env.addr = alloca ptr, align 8
  %result.addr = alloca ptr, align 8
  %last_status = alloca i32, align 4
  store ptr %env, ptr %env.addr, align 8
  store ptr %result, ptr %result.addr, align 8
  br label %do.body

do.body:                                          ; preds = %entry
  %0 = load ptr, ptr %env.addr, align 8
  %cmp = icmp eq ptr %0, null
  br i1 %cmp, label %if.then, label %if.end

if.then:                                          ; preds = %do.body
  store i32 1, ptr %retval, align 4
  br label %return

if.end:                                           ; preds = %do.body
  br label %do.end

do.end:                                           ; preds = %if.end
  br label %do.body1

do.body1:                                         ; preds = %do.end
  %1 = load ptr, ptr %result.addr, align 8
  %cmp2 = icmp ne ptr %1, null
  br i1 %cmp2, label %if.end4, label %if.then3

if.then3:                                         ; preds = %do.body1
  %2 = load ptr, ptr %env.addr, align 8
  %call = call noundef i32 @_Z19napi_set_last_errorP10napi_env__11napi_statusjPv(ptr noundef %2, i32 noundef 1, i32 noundef 0, ptr noundef null)
  store i32 %call, ptr %retval, align 4
  br label %return

if.end4:                                          ; preds = %do.body1
  br label %do.end5

do.end5:                                          ; preds = %if.end4
  store i32 23, ptr %last_status, align 4
  br label %do.body6

do.body6:                                         ; preds = %do.end5
  %3 = load ptr, ptr %env.addr, align 8
  %last_error = getelementptr inbounds %struct.napi_env__, ptr %3, i32 0, i32 7
  %error_code = getelementptr inbounds %struct.napi_extended_error_info, ptr %last_error, i32 0, i32 3
  %4 = load i32, ptr %error_code, align 4
  %cmp7 = icmp sle i32 %4, 23
  %lnot = xor i1 %cmp7, true
  %lnot8 = xor i1 %lnot, true
  %lnot9 = xor i1 %lnot8, true
  br i1 %lnot9, label %if.then10, label %if.end13

if.then10:                                        ; preds = %do.body6
  br label %do.body11

do.body11:                                        ; preds = %if.then10
  call void @_ZN4node6AssertERKNS_13AssertionInfoE(ptr noundef nonnull align 8 dereferenceable(24) @_ZZ24napi_get_last_error_infoE4args)
  call void @abort() #16
  unreachable

do.end12:                                         ; No predecessors!
  br label %if.end13

if.end13:                                         ; preds = %do.end12, %do.body6
  br label %do.end14

do.end14:                                         ; preds = %if.end13
  %5 = load ptr, ptr %env.addr, align 8
  %last_error15 = getelementptr inbounds %struct.napi_env__, ptr %5, i32 0, i32 7
  %error_code16 = getelementptr inbounds %struct.napi_extended_error_info, ptr %last_error15, i32 0, i32 3
  %6 = load i32, ptr %error_code16, align 4
  %idxprom = zext i32 %6 to i64
  %arrayidx = getelementptr inbounds [24 x ptr], ptr @_ZL14error_messages, i64 0, i64 %idxprom
  %7 = load ptr, ptr %arrayidx, align 8
  %8 = load ptr, ptr %env.addr, align 8
  %last_error17 = getelementptr inbounds %struct.napi_env__, ptr %8, i32 0, i32 7
  %error_message = getelementptr inbounds %struct.napi_extended_error_info, ptr %last_error17, i32 0, i32 0
  store ptr %7, ptr %error_message, align 8
  %9 = load ptr, ptr %env.addr, align 8
  %last_error18 = getelementptr inbounds %struct.napi_env__, ptr %9, i32 0, i32 7
  %error_code19 = getelementptr inbounds %struct.napi_extended_error_info, ptr %last_error18, i32 0, i32 3
  %10 = load i32, ptr %error_code19, align 4
  %cmp20 = icmp eq i32 %10, 0
  br i1 %cmp20, label %if.then21, label %if.end23

if.then21:                                        ; preds = %do.end14
  %11 = load ptr, ptr %env.addr, align 8
  %call22 = call noundef i32 @_Z21napi_clear_last_errorP10napi_env__(ptr noundef %11)
  br label %if.end23

if.end23:                                         ; preds = %if.then21, %do.end14
  %12 = load ptr, ptr %env.addr, align 8
  %last_error24 = getelementptr inbounds %struct.napi_env__, ptr %12, i32 0, i32 7
  %13 = load ptr, ptr %result.addr, align 8
  store ptr %last_error24, ptr %13, align 8
  store i32 0, ptr %retval, align 4
  br label %return

return:                                           ; preds = %if.end23, %if.then3, %if.then
  %14 = load i32, ptr %retval, align 4
  ret i32 %14
}