; Function Attrs: mustprogress nounwind uwtable
define dso_local noundef i32 @napi_get_last_error_info(ptr noundef %env, ptr noundef writeonly %result) local_unnamed_addr #3 {
entry:
  %cmp = icmp eq ptr %env, null
  br i1 %cmp, label %return, label %do.body1

do.body1:                                         ; preds = %entry
  %cmp2.not = icmp eq ptr %result, null
  br i1 %cmp2.not, label %if.then3, label %do.end5

if.then3:                                         ; preds = %do.body1
  %error_code1.i = getelementptr inbounds i8, ptr %env, i64 156
  store i32 1, ptr %error_code1.i, align 4
  %engine_error_code3.i = getelementptr inbounds i8, ptr %env, i64 152
  store i32 0, ptr %engine_error_code3.i, align 8
  %engine_reserved5.i = getelementptr inbounds i8, ptr %env, i64 144
  store ptr null, ptr %engine_reserved5.i, align 8
  br label %return

do.end5:                                          ; preds = %do.body1
  %last_error = getelementptr inbounds i8, ptr %env, i64 136
  %error_code = getelementptr inbounds i8, ptr %env, i64 156
  %0 = load i32, ptr %error_code, align 4
  %cmp7 = icmp sgt i32 %0, 23
  br i1 %cmp7, label %do.body11, label %do.end14

do.body11:                                        ; preds = %do.end5
  tail call void @_ZN4node6AssertERKNS_13AssertionInfoE(ptr noundef nonnull align 8 dereferenceable(24) @_ZZ24napi_get_last_error_infoE4args) #24
  tail call void @abort() #27
  unreachable

do.end14:                                         ; preds = %do.end5
  %idxprom = zext i32 %0 to i64
  %arrayidx = getelementptr inbounds [24 x ptr], ptr @_ZL14error_messages, i64 0, i64 %idxprom
  %1 = load ptr, ptr %arrayidx, align 8
  store ptr %1, ptr %last_error, align 8
  %cmp20 = icmp eq i32 %0, 0
  br i1 %cmp20, label %if.then21, label %if.end23

if.then21:                                        ; preds = %do.end14
  tail call void @llvm.memset.p0.i64(ptr noundef nonnull align 8 dereferenceable(24) %last_error, i8 0, i64 24, i1 false)
  br label %if.end23

if.end23:                                         ; preds = %if.then21, %do.end14
  store ptr %last_error, ptr %result, align 8
  br label %return

return:                                           ; preds = %entry, %if.end23, %if.then3
  %retval.0 = phi i32 [ 0, %if.end23 ], [ 1, %if.then3 ], [ 1, %entry ]
  ret i32 %retval.0
}